(lp0
(dp1
VhighAsk
p2
F1.26002
sVlowAsk
p3
F1.25182
sVcomplete
p4
I01
sVopenBid
p5
F1.25957
sVcloseAsk
p6
F1.25827
sVcloseBid
p7
F1.25818
sVvolume
p8
I11688
sVopenAsk
p9
F1.25966
sVtime
p10
V2013-04-03T19:00:00Z
p11
sVlowBid
p12
F1.25173
sVhighBid
p13
F1.25993
sa(dp14
VhighAsk
p15
F1.26003
sVlowAsk
p16
F1.25177
sVcomplete
p17
I01
sVopenBid
p18
F1.25936
sVcloseAsk
p19
F1.25302
sVcloseBid
p20
F1.25293
sVvolume
p21
I6796
sVopenAsk
p22
F1.25945
sVtime
p23
V2013-04-03T20:00:00Z
p24
sVlowBid
p25
F1.25168
sVhighBid
p26
F1.25994
sa.